(lp0
(dp1
S'rows'
p2
V4
p3
sS'columns'
p4
V6
p5
sS'traindir'
p6
Vmall
p7
sS'background_picture'
p8
V
p9
sS'predictdir'
p10
Vmall
p11
sa(dp12
g2
V4
p13
sg4
V6
p14
sg6
Vmall
p15
sg8
g9
sg10
Vmall
p16
sa(dp17
g2
V4
p18
sg4
V6
p19
sg6
Vmall
p20
sg8
g9
sg10
Vmall
p21
sa(dp22
g2
V4
p23
sg4
V6
p24
sg6
Vmall
p25
sg8
g9
sg10
Vmall
p26
sa(dp27
g2
V4
p28
sg4
V6
p29
sg6
Vmall
p30
sg8
g9
sg10
Vmall
p31
sa(dp32
g2
V4
p33
sg4
V6
p34
sg6
Vmall
p35
sg8
g9
sg10
Vmall
p36
sa.