(lp0
(dp1
S'rows'
p2
V4
p3
sS'columns'
p4
V6
p5
sS'traindir'
p6
Vmalldata
p7
sS'background_picture'
p8
V
p9
sS'predictdir'
p10
Vmalldata
p11
sa(dp12
g2
V4
p13
sg4
V6
p14
sg6
Vningbo
p15
sg8
g9
sg10
Vningbo
p16
sa.